target datalayout = "e-m:e-p270:32:32-p271:32:32-p272:64:64-i64:64-i128:128-f80:128-n8:16:32:64-S128"
target triple = "x86_64-pc-linux-gnu"

%struct._e_prefs = type { ptr, i32, %struct.color_t, %struct.color_t, %struct.color_t, %struct.color_t, %struct.color_t, %struct.color_t, %struct.color_t, i8, i32, ptr, i32, %struct.color_t, %struct.color_t, i32, %struct.color_t, %struct.color_t, i32, %struct.color_t, %struct.color_t, %struct.color_t, %struct.color_t, ptr, ptr, i8, i8, i8, i32, i32, i32, ptr, i32, ptr, i8, i8, i8, ptr, ptr, ptr, i32, i32, i32, i32, i8, i32, i32, i32, i32, i32, ptr, i8, i8, i8, i8, i8, ptr, ptr, ptr, ptr, ptr, ptr, ptr, ptr, ptr, i8, i8, i8, i8, i32, i8, i8, i8, ptr, i32, i8, i8, i32, i8, i8, i8, i32, i8, i32, i8, i8, i8, i32, i32, i32, ptr, i8, i8, i8, i8, i8, i8, i32, i32, i8, i8, i8, i8, i32, i32, i32, i32, i8, i8, i32, i8, i8, i32, i32, i8, i8, i8, i32, i8, i8, i8 }
%struct.color_t = type { i16, i16, i16 }
%struct._capture_file = type { ptr, i32, ptr, ptr, i8, i8, i8, i64, i16, i32, i32, i32, ptr, i32, i64, i32, i32, i32, i32, i8, i32, %struct.nstime_t, i32, ptr, ptr, ptr, i8, i8, i32, ptr, i8, i8, i8, i8, i8, i32, i32, i8, ptr, i32, i32, i8, %struct.packet_provider_data, i32, i32, %struct.epan_column_info, ptr, ptr, ptr, %struct.wtap_rec, %struct.Buffer, ptr, i64, i32 }
%struct.nstime_t = type { i64, i32 }
%struct.packet_provider_data = type { ptr, ptr, ptr, ptr, ptr, ptr }
%struct.epan_column_info = type { ptr, i32, ptr, ptr, ptr, %struct.col_expr_t, i8, ptr }
%struct.col_expr_t = type { ptr, ptr }
%struct.wtap_rec = type { i32, i32, i32, %struct.nstime_t, i32, %struct.nstime_t, i8, %union.anon, ptr, i8, %struct.Buffer, %struct.Buffer }
%union.anon = type { %struct.wtap_packet_header }
%struct.wtap_packet_header = type { i32, i32, i32, i32, %union.wtap_pseudo_header }
%union.wtap_pseudo_header = type { %struct.erf_mc_phdr }
%struct.erf_mc_phdr = type { %struct.erf_phdr, [16 x %struct.erf_ehdr], %union.anon.1 }
%struct.erf_phdr = type { i64, i8, i8, i16, i16, i16 }
%struct.erf_ehdr = type { i64 }
%union.anon.1 = type { i32 }
%struct.Buffer = type { ptr, i64, i64, i64 }
%struct._frame_data = type <{ i32, i32, i32, i32, i32, [4 x i8], i64, ptr, ptr, ptr, i8, i16, [5 x i8], %struct.nstime_t, %struct.nstime_t, i32, i32 }>

@prefs = external global %struct._e_prefs, align 8
@.str.41 = private unnamed_addr constant [50 x i8] c"The capture file is probably not fully dissected.\00", align 1
@.str.42 = private unnamed_addr constant [25 x i8] c"End of capture exceeded.\00", align 1
@.str.55 = private unnamed_addr constant [18 x i8] c"%4u of %u packets\00", align 1
@.str.59 = private unnamed_addr constant [49 x i8] c"Search reached the beginning. Continuing at end.\00", align 1
@.str.60 = private unnamed_addr constant [30 x i8] c"Search reached the beginning.\00", align 1
@.str.61 = private unnamed_addr constant [49 x i8] c"Search reached the end. Continuing at beginning.\00", align 1
@.str.62 = private unnamed_addr constant [24 x i8] c"Search reached the end.\00", align 1

; Function Attrs: null_pointer_is_valid sspstrong uwtable
define internal zeroext i1 @find_packet(ptr noundef %0, ptr noundef %1, ptr noundef %2, i32 noundef %3, i1 noundef zeroext %4) #1 {
  %6 = alloca ptr, align 8
  %7 = alloca ptr, align 8
  %8 = alloca ptr, align 8
  %9 = alloca i32, align 4
  %10 = alloca i8, align 1
  %11 = alloca ptr, align 8
  %12 = alloca i32, align 4
  %13 = alloca i32, align 4
  %14 = alloca ptr, align 8
  %15 = alloca %struct.wtap_rec, align 8
  %16 = alloca ptr, align 8
  %17 = alloca ptr, align 8
  %18 = alloca ptr, align 8
  %19 = alloca i32, align 4
  %20 = alloca i8, align 1
  %21 = alloca i8, align 1
  %22 = alloca float, align 4
  %23 = alloca [100 x i8], align 16
  %24 = alloca i32, align 4
  %25 = alloca i8, align 1
  store ptr %0, ptr %6, align 8
  store ptr %1, ptr %7, align 8
  store ptr %2, ptr %8, align 8
  store i32 %3, ptr %9, align 4
  %26 = zext i1 %4 to i8
  store i8 %26, ptr %10, align 1
  call void @llvm.lifetime.start.p0(i64 8, ptr %11) #19
  call void @llvm.lifetime.start.p0(i64 4, ptr %12) #19
  call void @llvm.lifetime.start.p0(i64 4, ptr %13) #19
  call void @llvm.lifetime.start.p0(i64 8, ptr %14) #19
  call void @llvm.lifetime.start.p0(i64 312, ptr %15) #19
  call void @llvm.lifetime.start.p0(i64 8, ptr %16) #19
  store ptr null, ptr %16, align 8
  call void @llvm.lifetime.start.p0(i64 8, ptr %17) #19
  store ptr null, ptr %17, align 8
  call void @llvm.lifetime.start.p0(i64 8, ptr %18) #19
  %27 = call ptr @g_timer_new()
  store ptr %27, ptr %18, align 8
  call void @llvm.lifetime.start.p0(i64 4, ptr %19) #19
  call void @llvm.lifetime.start.p0(i64 1, ptr %20) #19
  %28 = load i8, ptr getelementptr inbounds nuw (%struct._e_prefs, ptr @prefs, i32 0, i32 36), align 2, !range !8, !noundef !9
  %29 = trunc i8 %28 to i1
  %30 = zext i1 %29 to i8
  store i8 %30, ptr %20, align 1
  call void @llvm.lifetime.start.p0(i64 1, ptr %21) #19
  call void @llvm.lifetime.start.p0(i64 4, ptr %22) #19
  call void @llvm.lifetime.start.p0(i64 100, ptr %23) #19
  call void @llvm.lifetime.start.p0(i64 4, ptr %24) #19
  call void @wtap_rec_init(ptr noundef %15, i64 noundef 1514)
  %31 = load i8, ptr %10, align 1, !range !8, !noundef !9
  %32 = trunc i8 %31 to i1
  br i1 %32, label %33, label %37

33:                                               ; preds = %5
  %34 = load ptr, ptr %6, align 8
  %35 = getelementptr inbounds nuw %struct._capture_file, ptr %34, i32 0, i32 46
  %36 = load ptr, ptr %35, align 8
  br label %38

37:                                               ; preds = %5
  br label %38

38:                                               ; preds = %37, %33
  %39 = phi ptr [ %36, %33 ], [ null, %37 ]
  store ptr %39, ptr %11, align 8
  %40 = load ptr, ptr %11, align 8
  %41 = icmp ne ptr %40, null
  br i1 %41, label %42, label %46

42:                                               ; preds = %38
  %43 = load ptr, ptr %11, align 8
  %44 = getelementptr inbounds nuw %struct._frame_data, ptr %43, i32 0, i32 0
  %45 = load i32, ptr %44, align 8
  store i32 %45, ptr %13, align 4
  br label %47

46:                                               ; preds = %38
  store i32 0, ptr %13, align 4
  store i8 0, ptr %20, align 1
  br label %47

47:                                               ; preds = %46, %42
  store i32 0, ptr %19, align 4
  %48 = load i32, ptr %13, align 4
  store i32 %48, ptr %12, align 4
  %49 = load i32, ptr %12, align 4
  %50 = icmp eq i32 %49, 0
  br i1 %50, label %51, label %59

51:                                               ; preds = %47
  %52 = load i32, ptr %9, align 4
  %53 = icmp eq i32 %52, 1
  br i1 %53, label %54, label %59

54:                                               ; preds = %51
  %55 = load ptr, ptr %6, align 8
  %56 = getelementptr inbounds nuw %struct._capture_file, ptr %55, i32 0, i32 13
  %57 = load i32, ptr %56, align 8
  %58 = add i32 %57, 1
  store i32 %58, ptr %12, align 4
  br label %59

59:                                               ; preds = %54, %51, %47
  %60 = load ptr, ptr %18, align 8
  call void @g_timer_start(ptr noundef %60)
  store float 0.000000e+00, ptr %22, align 4
  %61 = load ptr, ptr %6, align 8
  %62 = getelementptr inbounds nuw %struct._capture_file, ptr %61, i32 0, i32 6
  store i8 0, ptr %62, align 2
  br label %63

63:                                               ; preds = %183, %59
  %64 = load ptr, ptr %17, align 8
  %65 = icmp eq ptr %64, null
  br i1 %65, label %66, label %74

66:                                               ; preds = %63
  %67 = load ptr, ptr %6, align 8
  %68 = getelementptr inbounds nuw %struct._capture_file, ptr %67, i32 0, i32 51
  %69 = load ptr, ptr %68, align 8
  %70 = load ptr, ptr %6, align 8
  %71 = getelementptr inbounds nuw %struct._capture_file, ptr %70, i32 0, i32 6
  %72 = load float, ptr %22, align 4
  %73 = call ptr @delayed_create_progress_dlg(ptr noundef %69, ptr noundef null, ptr noundef null, i1 noundef zeroext false, ptr noundef %71, float noundef %72)
  store ptr %73, ptr %17, align 8
  br label %74

74:                                               ; preds = %66, %63
  %75 = load ptr, ptr %18, align 8
  %76 = call double @g_timer_elapsed(ptr noundef %75, ptr noundef null)
  %77 = fcmp ogt double %76, 1.500000e-01
  br i1 %77, label %78, label %99

78:                                               ; preds = %74
  br label %79

79:                                               ; preds = %78
  br label %80

80:                                               ; preds = %79
  br label %81

81:                                               ; preds = %80
  %82 = load i32, ptr %19, align 4
  %83 = sitofp i32 %82 to float
  %84 = load ptr, ptr %6, align 8
  %85 = getelementptr inbounds nuw %struct._capture_file, ptr %84, i32 0, i32 13
  %86 = load i32, ptr %85, align 8
  %87 = uitofp i32 %86 to float
  %88 = fdiv float %83, %87
  store float %88, ptr %22, align 4
  %89 = getelementptr inbounds [100 x i8], ptr %23, i64 0, i64 0
  %90 = load i32, ptr %19, align 4
  %91 = load ptr, ptr %6, align 8
  %92 = getelementptr inbounds nuw %struct._capture_file, ptr %91, i32 0, i32 13
  %93 = load i32, ptr %92, align 8
  %94 = call i32 (ptr, i64, i32, i64, ptr, ...) @__snprintf_chk(ptr noundef %89, i64 noundef 100, i32 noundef 2, i64 noundef 100, ptr noundef @.str.55, i32 noundef %90, i32 noundef %93)
  %95 = load ptr, ptr %17, align 8
  %96 = load float, ptr %22, align 4
  %97 = getelementptr inbounds [100 x i8], ptr %23, i64 0, i64 0
  call void @update_progress_dlg(ptr noundef %95, float noundef %96, ptr noundef %97)
  %98 = load ptr, ptr %18, align 8
  call void @g_timer_start(ptr noundef %98)
  br label %99

99:                                               ; preds = %81, %74
  %100 = load ptr, ptr %6, align 8
  %101 = getelementptr inbounds nuw %struct._capture_file, ptr %100, i32 0, i32 6
  %102 = load i8, ptr %101, align 2, !range !8, !noundef !9
  %103 = trunc i8 %102 to i1
  br i1 %103, label %104, label %106

104:                                              ; preds = %99
  %105 = load ptr, ptr %11, align 8
  store ptr %105, ptr %16, align 8
  br label %184

106:                                              ; preds = %99
  %107 = load i32, ptr %9, align 4
  %108 = icmp eq i32 %107, 1
  br i1 %108, label %109, label %126

109:                                              ; preds = %106
  %110 = load i32, ptr %12, align 4
  %111 = icmp ule i32 %110, 1
  br i1 %111, label %112, label %122

112:                                              ; preds = %109
  %113 = load i8, ptr %20, align 1, !range !8, !noundef !9
  %114 = trunc i8 %113 to i1
  br i1 %114, label %115, label %119

115:                                              ; preds = %112
  call void (ptr, ...) @statusbar_push_temporary_msg(ptr noundef @.str.59)
  %116 = load ptr, ptr %6, align 8
  %117 = getelementptr inbounds nuw %struct._capture_file, ptr %116, i32 0, i32 13
  %118 = load i32, ptr %117, align 8
  store i32 %118, ptr %12, align 4
  store i8 0, ptr %20, align 1
  br label %121

119:                                              ; preds = %112
  call void (ptr, ...) @statusbar_push_temporary_msg(ptr noundef @.str.60)
  %120 = load i32, ptr %13, align 4
  store i32 %120, ptr %12, align 4
  br label %121

121:                                              ; preds = %119, %115
  br label %125

122:                                              ; preds = %109
  %123 = load i32, ptr %12, align 4
  %124 = add i32 %123, -1
  store i32 %124, ptr %12, align 4
  br label %125

125:                                              ; preds = %122, %121
  br label %143

126:                                              ; preds = %106
  %127 = load i32, ptr %12, align 4
  %128 = load ptr, ptr %6, align 8
  %129 = getelementptr inbounds nuw %struct._capture_file, ptr %128, i32 0, i32 13
  %130 = load i32, ptr %129, align 8
  %131 = icmp eq i32 %127, %130
  br i1 %131, label %132, label %139

132:                                              ; preds = %126
  %133 = load i8, ptr %20, align 1, !range !8, !noundef !9
  %134 = trunc i8 %133 to i1
  br i1 %134, label %135, label %136

135:                                              ; preds = %132
  call void (ptr, ...) @statusbar_push_temporary_msg(ptr noundef @.str.61)
  store i32 1, ptr %12, align 4
  store i8 0, ptr %20, align 1
  br label %138

136:                                              ; preds = %132
  call void (ptr, ...) @statusbar_push_temporary_msg(ptr noundef @.str.62)
  %137 = load i32, ptr %13, align 4
  store i32 %137, ptr %12, align 4
  br label %138

138:                                              ; preds = %136, %135
  br label %142

139:                                              ; preds = %126
  %140 = load i32, ptr %12, align 4
  %141 = add i32 %140, 1
  store i32 %141, ptr %12, align 4
  br label %142

142:                                              ; preds = %139, %138
  br label %143

143:                                              ; preds = %142, %125
  %144 = load ptr, ptr %6, align 8
  %145 = getelementptr inbounds nuw %struct._capture_file, ptr %144, i32 0, i32 42
  %146 = getelementptr inbounds nuw %struct.packet_provider_data, ptr %145, i32 0, i32 4
  %147 = load ptr, ptr %146, align 8
  %148 = load i32, ptr %12, align 4
  %149 = call ptr @frame_data_sequence_find(ptr noundef %147, i32 noundef %148)
  store ptr %149, ptr %14, align 8
  %150 = load i32, ptr %19, align 4
  %151 = add i32 %150, 1
  store i32 %151, ptr %19, align 4
  %152 = load ptr, ptr %14, align 8
  %153 = icmp ne ptr %152, null
  br i1 %153, label %154, label %178

154:                                              ; preds = %143
  %155 = load ptr, ptr %14, align 8
  %156 = getelementptr inbounds nuw %struct._frame_data, ptr %155, i32 0, i32 11
  %157 = load i16, ptr %156, align 1
  %158 = and i16 %157, 1
  %159 = zext i16 %158 to i32
  %160 = icmp ne i32 %159, 0
  br i1 %160, label %161, label %178

161:                                              ; preds = %154
  %162 = load ptr, ptr %7, align 8
  %163 = load ptr, ptr %6, align 8
  %164 = load ptr, ptr %14, align 8
  %165 = load ptr, ptr %8, align 8
  %166 = call i32 %162(ptr noundef %163, ptr noundef %164, ptr noundef %15, ptr noundef %165)
  store i32 %166, ptr %24, align 4
  %167 = load i32, ptr %24, align 4
  %168 = icmp eq i32 %167, 2
  br i1 %168, label %169, label %171

169:                                              ; preds = %161
  %170 = load ptr, ptr %11, align 8
  store ptr %170, ptr %16, align 8
  br label %184

171:                                              ; preds = %161
  %172 = load i32, ptr %24, align 4
  %173 = icmp eq i32 %172, 1
  br i1 %173, label %174, label %176

174:                                              ; preds = %171
  %175 = load ptr, ptr %14, align 8
  store ptr %175, ptr %16, align 8
  br label %184

176:                                              ; preds = %171
  br label %177

177:                                              ; preds = %176
  call void @wtap_rec_reset(ptr noundef %15)
  br label %178

178:                                              ; preds = %177, %154, %143
  %179 = load ptr, ptr %14, align 8
  %180 = load ptr, ptr %11, align 8
  %181 = icmp eq ptr %179, %180
  br i1 %181, label %182, label %183

182:                                              ; preds = %178
  br label %184

183:                                              ; preds = %178
  br label %63

184:                                              ; preds = %182, %174, %169, %104
  %185 = load ptr, ptr %17, align 8
  %186 = icmp ne ptr %185, null
  br i1 %186, label %187, label %189

187:                                              ; preds = %184
  %188 = load ptr, ptr %17, align 8
  call void @destroy_progress_dlg(ptr noundef %188)
  br label %189

189:                                              ; preds = %187, %184
  %190 = load ptr, ptr %18, align 8
  call void @g_timer_destroy(ptr noundef %190)
  %191 = load ptr, ptr %16, align 8
  %192 = icmp ne ptr %191, null
  br i1 %192, label %193, label %210

193:                                              ; preds = %189
  call void @llvm.lifetime.start.p0(i64 1, ptr %25) #19
  %194 = load ptr, ptr %6, align 8
  %195 = getelementptr inbounds nuw %struct._capture_file, ptr %194, i32 0, i32 41
  store i8 1, ptr %195, align 8
  %196 = load ptr, ptr %16, align 8
  %197 = call zeroext i1 @packet_list_select_row_from_data(ptr noundef %196)
  %198 = zext i1 %197 to i8
  store i8 %198, ptr %25, align 1
  %199 = load ptr, ptr %6, align 8
  %200 = getelementptr inbounds nuw %struct._capture_file, ptr %199, i32 0, i32 41
  store i8 0, ptr %200, align 8
  %201 = load i8, ptr %25, align 1, !range !8, !noundef !9
  %202 = trunc i8 %201 to i1
  br i1 %202, label %208, label %203

203:                                              ; preds = %193
  %204 = load ptr, ptr %6, align 8
  %205 = getelementptr inbounds nuw %struct._capture_file, ptr %204, i32 0, i32 35
  store i32 0, ptr %205, align 8
  %206 = load ptr, ptr %6, align 8
  %207 = getelementptr inbounds nuw %struct._capture_file, ptr %206, i32 0, i32 36
  store i32 0, ptr %207, align 4
  call void (i32, ptr, ptr, ptr, ...) @simple_message_box(i32 noundef 0, ptr noundef null, ptr noundef @.str.41, ptr noundef @.str.42)
  store i8 0, ptr %21, align 1
  br label %209

208:                                              ; preds = %193
  store i8 1, ptr %21, align 1
  br label %209

209:                                              ; preds = %208, %203
  call void @llvm.lifetime.end.p0(i64 1, ptr %25) #19
  br label %211

210:                                              ; preds = %189
  store i8 0, ptr %21, align 1
  br label %211

211:                                              ; preds = %210, %209
  call void @wtap_rec_cleanup(ptr noundef %15)
  %212 = load i8, ptr %21, align 1, !range !8, !noundef !9
  %213 = trunc i8 %212 to i1
  call void @llvm.lifetime.end.p0(i64 4, ptr %24) #19
  call void @llvm.lifetime.end.p0(i64 100, ptr %23) #19
  call void @llvm.lifetime.end.p0(i64 4, ptr %22) #19
  call void @llvm.lifetime.end.p0(i64 1, ptr %21) #19
  call void @llvm.lifetime.end.p0(i64 1, ptr %20) #19
  call void @llvm.lifetime.end.p0(i64 4, ptr %19) #19
  call void @llvm.lifetime.end.p0(i64 8, ptr %18) #19
  call void @llvm.lifetime.end.p0(i64 8, ptr %17) #19
  call void @llvm.lifetime.end.p0(i64 8, ptr %16) #19
  call void @llvm.lifetime.end.p0(i64 312, ptr %15) #19
  call void @llvm.lifetime.end.p0(i64 8, ptr %14) #19
  call void @llvm.lifetime.end.p0(i64 4, ptr %13) #19
  call void @llvm.lifetime.end.p0(i64 4, ptr %12) #19
  call void @llvm.lifetime.end.p0(i64 8, ptr %11) #19
  ret i1 %213
}