; Function Attrs: null_pointer_is_valid sspstrong uwtable
define internal fastcc noundef zeroext i1 @find_packet(ptr noundef initializes((34, 35)) %0, ptr noundef readonly captures(none) %1, ptr noundef %2, i32 noundef %3, i1 noundef zeroext %4) unnamed_addr #1 {
  %6 = alloca %struct.wtap_rec, align 8
  %7 = alloca [100 x i8], align 16
  call void @llvm.lifetime.start.p0(i64 312, ptr nonnull %6) #23
  %8 = tail call ptr @g_timer_new()
  %9 = load i8, ptr getelementptr inbounds nuw (i8, ptr @prefs, i64 194), align 2, !range !9, !noundef !10
  call void @llvm.lifetime.start.p0(i64 100, ptr nonnull %7) #23
  call void @wtap_rec_init(ptr noundef nonnull %6, i64 noundef 1514)
  br i1 %4, label %10, label %.thread

10:                                               ; preds = %5
  %11 = getelementptr inbounds nuw i8, ptr %0, i64 352
  %12 = load ptr, ptr %11, align 8
  %.not = icmp eq ptr %12, null
  br i1 %.not, label %.thread, label %13

13:                                               ; preds = %10
  %14 = load i32, ptr %12, align 8
  br label %.thread

.thread:                                          ; preds = %5, %10, %13
  %15 = phi ptr [ %12, %13 ], [ null, %10 ], [ null, %5 ]
  %.066 = phi i8 [ %9, %13 ], [ 0, %10 ], [ 0, %5 ]
  %.061 = phi i32 [ %14, %13 ], [ 0, %10 ], [ 0, %5 ]
  %16 = icmp eq i32 %.061, 0
  %17 = icmp eq i32 %3, 1
  %or.cond = and i1 %17, %16
  br i1 %or.cond, label %18, label %22

18:                                               ; preds = %.thread
  %19 = getelementptr inbounds nuw i8, ptr %0, i64 72
  %20 = load i32, ptr %19, align 8
  %21 = add i32 %20, 1
  br label %22

22:                                               ; preds = %18, %.thread
  %.0 = phi i32 [ %21, %18 ], [ %.061, %.thread ]
  call void @g_timer_start(ptr noundef %8)
  %23 = getelementptr inbounds nuw i8, ptr %0, i64 34
  store i8 0, ptr %23, align 2
  %24 = getelementptr inbounds nuw i8, ptr %0, i64 720
  %25 = getelementptr inbounds nuw i8, ptr %0, i64 72
  %26 = getelementptr inbounds nuw i8, ptr %0, i64 256
  br label %27

27:                                               ; preds = %74, %22
  %.071 = phi ptr [ null, %22 ], [ %.172, %74 ]
  %.069 = phi i32 [ 0, %22 ], [ %66, %74 ]
  %.167 = phi i8 [ %.066, %22 ], [ %.268, %74 ]
  %.062 = phi float [ 0.000000e+00, %22 ], [ %.163, %74 ]
  %.1 = phi i32 [ %.0, %22 ], [ %.2, %74 ]
  %28 = icmp eq ptr %.071, null
  br i1 %28, label %29, label %32

29:                                               ; preds = %27
  %30 = load ptr, ptr %24, align 8
  %31 = call ptr @delayed_create_progress_dlg(ptr noundef %30, ptr noundef null, ptr noundef null, i1 noundef zeroext false, ptr noundef nonnull %23, float noundef %.062)
  br label %32

32:                                               ; preds = %29, %27
  %.172 = phi ptr [ %31, %29 ], [ %.071, %27 ]
  %33 = call double @g_timer_elapsed(ptr noundef %8, ptr noundef null)
  %34 = fcmp ogt double %33, 1.500000e-01
  br i1 %34, label %35, label %41

35:                                               ; preds = %32
  %36 = sitofp i32 %.069 to float
  %37 = load i32, ptr %25, align 8
  %38 = uitofp i32 %37 to float
  %39 = fdiv float %36, %38
  %40 = call i32 (ptr, i64, i32, i64, ptr, ...) @__snprintf_chk(ptr noundef nonnull %7, i64 noundef 100, i32 noundef 2, i64 noundef 100, ptr noundef nonnull @.str.55, i32 noundef %.069, i32 noundef %37)
  call void @update_progress_dlg(ptr noundef %.172, float noundef %39, ptr noundef nonnull %7)
  call void @g_timer_start(ptr noundef %8)
  br label %41

41:                                               ; preds = %35, %32
  %.163 = phi float [ %39, %35 ], [ %.062, %32 ]
  %42 = load i8, ptr %23, align 2, !range !9, !noundef !10
  %43 = trunc nuw i8 %42 to i1
  br i1 %43, label %.loopexit, label %44

44:                                               ; preds = %41
  br i1 %17, label %45, label %54

45:                                               ; preds = %44
  %46 = icmp ult i32 %.1, 2
  br i1 %46, label %47, label %52

47:                                               ; preds = %45
  %48 = trunc nuw i8 %.167 to i1
  br i1 %48, label %49, label %51

49:                                               ; preds = %47
  call void (ptr, ...) @statusbar_push_temporary_msg(ptr noundef nonnull @.str.59)
  %50 = load i32, ptr %25, align 8
  br label %63

51:                                               ; preds = %47
  call void (ptr, ...) @statusbar_push_temporary_msg(ptr noundef nonnull @.str.60)
  br label %63

52:                                               ; preds = %45
  %53 = add i32 %.1, -1
  br label %63

54:                                               ; preds = %44
  %55 = load i32, ptr %25, align 8
  %56 = icmp eq i32 %.1, %55
  br i1 %56, label %57, label %61

57:                                               ; preds = %54
  %58 = trunc nuw i8 %.167 to i1
  br i1 %58, label %59, label %60

59:                                               ; preds = %57
  call void (ptr, ...) @statusbar_push_temporary_msg(ptr noundef nonnull @.str.61)
  br label %63

60:                                               ; preds = %57
  call void (ptr, ...) @statusbar_push_temporary_msg(ptr noundef nonnull @.str.62)
  br label %63

61:                                               ; preds = %54
  %62 = add i32 %.1, 1
  br label %63

63:                                               ; preds = %61, %60, %59, %52, %51, %49
  %.268 = phi i8 [ 0, %49 ], [ 0, %51 ], [ %.167, %52 ], [ 0, %59 ], [ 0, %60 ], [ %.167, %61 ]
  %.2 = phi i32 [ %50, %49 ], [ %.061, %51 ], [ %53, %52 ], [ 1, %59 ], [ %.061, %60 ], [ %62, %61 ]
  %64 = load ptr, ptr %26, align 8
  %65 = call ptr @frame_data_sequence_find(ptr noundef %64, i32 noundef %.2)
  %66 = add i32 %.069, 1
  %.not76 = icmp eq ptr %65, null
  br i1 %.not76, label %74, label %67

67:                                               ; preds = %63
  %68 = getelementptr inbounds nuw i8, ptr %65, i64 57
  %69 = load i16, ptr %68, align 1
  %70 = and i16 %69, 1
  %.not77 = icmp eq i16 %70, 0
  br i1 %.not77, label %74, label %71

71:                                               ; preds = %67
  %72 = call i32 %1(ptr noundef %0, ptr noundef nonnull %65, ptr noundef nonnull %6, ptr noundef %2)
  switch i32 %72, label %73 [
    i32 2, label %.loopexit.loopexit
    i32 1, label %.loopexit
  ]

73:                                               ; preds = %71
  call void @wtap_rec_reset(ptr noundef nonnull %6)
  br label %74

74:                                               ; preds = %73, %67, %63
  %75 = icmp eq ptr %65, %15
  br i1 %75, label %.loopexit, label %27

.loopexit.loopexit:                               ; preds = %71
  br label %.loopexit

.loopexit:                                        ; preds = %41, %74, %71, %.loopexit.loopexit
  %.070 = phi ptr [ %65, %71 ], [ %15, %41 ], [ null, %74 ], [ %15, %.loopexit.loopexit ]
  %.not78 = icmp eq ptr %.172, null
  br i1 %.not78, label %77, label %76

76:                                               ; preds = %.loopexit
  call void @destroy_progress_dlg(ptr noundef nonnull %.172)
  br label %77

77:                                               ; preds = %76, %.loopexit
  call void @g_timer_destroy(ptr noundef %8)
  %.not79 = icmp eq ptr %.070, null
  br i1 %.not79, label %84, label %78

78:                                               ; preds = %77
  %79 = getelementptr inbounds nuw i8, ptr %0, i64 216
  store i8 1, ptr %79, align 8
  %80 = call zeroext i1 @packet_list_select_row_from_data(ptr noundef nonnull %.070)
  store i8 0, ptr %79, align 8
  br i1 %80, label %84, label %81

81:                                               ; preds = %78
  %82 = getelementptr inbounds nuw i8, ptr %0, i64 184
  store i32 0, ptr %82, align 8
  %83 = getelementptr inbounds nuw i8, ptr %0, i64 188
  store i32 0, ptr %83, align 4
  call void (i32, ptr, ptr, ptr, ...) @simple_message_box(i32 noundef 0, ptr noundef null, ptr noundef nonnull @.str.41, ptr noundef nonnull @.str.42)
  br label %84

84:                                               ; preds = %77, %81, %78
  %.165 = phi i1 [ true, %78 ], [ false, %81 ], [ false, %77 ]
  call void @wtap_rec_cleanup(ptr noundef nonnull %6)
  call void @llvm.lifetime.end.p0(i64 100, ptr nonnull %7) #23
  call void @llvm.lifetime.end.p0(i64 312, ptr nonnull %6) #23
  ret i1 %.165
}